; Function Attrs: mustprogress nofree norecurse nosync nounwind willreturn memory(argmem: readwrite) uwtable
define hidden void @_ZN11opencv_onnx22StringStringEntryProto12InternalSwapEPS0_(ptr noundef nonnull align 8 captures(none) dereferenceable(40) %0, ptr noundef captures(none) %1) local_unnamed_addr #16 align 2 {
_ZNK6google8protobuf11MessageLite21GetArenaForAllocationEv.exit:
  %2 = getelementptr inbounds nuw i8, ptr %0, i64 8
  %3 = load i64, ptr %2, align 8, !tbaa !33
  %4 = getelementptr inbounds nuw i8, ptr %1, i64 8
  %5 = load i64, ptr %4, align 8, !tbaa !33
  store i64 %5, ptr %2, align 8, !tbaa !94
  store i64 %3, ptr %4, align 8, !tbaa !94
  %6 = getelementptr inbounds nuw i8, ptr %0, i64 16
  %7 = getelementptr inbounds nuw i8, ptr %1, i64 16
  %8 = load i32, ptr %6, align 8, !tbaa !51
  %9 = load i32, ptr %7, align 4, !tbaa !51
  store i32 %9, ptr %6, align 8, !tbaa !51
  store i32 %8, ptr %7, align 4, !tbaa !51
  %10 = getelementptr inbounds nuw i8, ptr %0, i64 24
  %11 = getelementptr inbounds nuw i8, ptr %1, i64 24
  %.sroa.0.0.copyload.i = load ptr, ptr %11, align 8, !tbaa !52
  %12 = load i64, ptr %10, align 8, !tbaa !52
  store i64 %12, ptr %11, align 8, !tbaa !52
  store ptr %.sroa.0.0.copyload.i, ptr %10, align 8, !tbaa !52
  %13 = getelementptr inbounds nuw i8, ptr %0, i64 32
  %14 = getelementptr inbounds nuw i8, ptr %1, i64 32
  %.sroa.0.0.copyload.i13 = load ptr, ptr %14, align 8, !tbaa !52
  %15 = load i64, ptr %13, align 8, !tbaa !52
  store i64 %15, ptr %14, align 8, !tbaa !52
  store ptr %.sroa.0.0.copyload.i13, ptr %13, align 8, !tbaa !52
  ret void
}